(dp0
S'BetPsc_20151016nfw.fits'
p1
S'BetPsc_2457312_65676.csv'
p2
sS'PhiAnd_20141115nfw.fits'
p3
S'PhiAnd_2456977_59786.csv'
p4
sS'PsiPer_20150122nfw.fits'
p5
S'PsiPer_2457045_60116.csv'
p6
sS'PsiPer_20141212nfw.fits'
p7
S'PsiPer_2457004_58431.csv'
p8
sS'PsiPer_20141103nfw.fits'
p9
S'PsiPer_2456965_68801.csv'
p10
sS'PsiPer_20141111nfw.fits'
p11
S'PsiPer_2456973_76322.csv'
p12
sS'DelSco_20130723nfw.fits'
p13
S'DelSco_2456497_5593.csv'
p14
sS'NuGem_20150109nfw.fits'
p15
S'V*NuGem_2457032_65121.csv'
p16
sS'BetCMi_20131218nfw.fits'
p17
S'BetCmi_2456645_74112.csv'
p18
sS'NuGem_20141026nfw.fits'
p19
S'V*NuGem_2456957_75605.csv'
p20
sS'PsiPer_20151219nfw.fits'
p21
S'PsiPer_2457376_60987.csv'
p22
sS'PsiPer_20151021nfw.fits'
p23
S'PsiPer_2457317_68696.csv'
p24
sS'EWLac_20150822nfw.fits'
p25
S'HD217050_2457257_70029.csv'
p26
sS'PsiPer_20141009nfw.fits'
p27
S'PsiPer_2456940_68402.csv'
p28
sS'BetCMi_20131130nfw.fits'
p29
S'BetCmi_2456627_76862.csv'
p30
sS'PsiPer_20150207nfw.fits'
p31
S'PsiPer_2457061_58741.csv'
p32
sS'EWLac_20150105nfw.fits'
p33
S'HD217050_2457028_53693.csv'
p34
sS'BetCMi_20150118nfw.fits'
p35
S'BetCmi_2457041_68465.csv'
p36
sS'EWLac_20141109nfw.fits'
p37
S'HD217050_2456971_56969.csv'
p38
sS'BetCMi_20150211nfw.fits'
p39
S'BetCmi_2457065_72073.csv'
p40
sS'PsiPer_20141122nfw.fits'
p41
S'PsiPer_2456984_61266.csv'
p42
sS'BetCMi_20150122nfw.fits'
p43
S'BetCmi_2457045_64409.csv'
p44
sS'ChiOph_20150812nfw.fits'
p45
S'ChiOph_2457247_54842.csv'
p46
sS'BetCMi_20140227nfw.fits'
p47
S'BetCmi_2456716_53018.csv'
p48
sS'10Cas_20151015nfw.fits'
p49
S'10Cas_2457311_60005.csv'
p50
sS'10Cas_20150110nfw.fits'
p51
S'10Cas_2457033_5282.csv'
p52
sS'EWLac_20141120nfw.fits'
p53
S'HD217050_2456982_51783.csv'
p54
sS'HD698_20141120nfw.fits'
p55
S'HD698_2456982_54919.csv'
p56
sS'NuGem_20150121nfw.fits'
p57
S'V*NuGem_2457044_64897.csv'
p58
sS'NuGem_20141114nfw.fits'
p59
S'V*NuGem_2456976_69227.csv'
p60
sS'PiAqr_20141024nfw.fits'
p61
S'PIAqr_2456955_60341.csv'
p62
sS'DelSco_20150523sh_nfw.fits'
p63
S'DelSco_2457166_70085.csv'
p64
sS'ChiOph_20150716sh_nfw.fits'
p65
S'ChiOph_2457220_5895.csv'
p66
sS'BetCMi_20141025nfw.fits'
p67
S'BetCmi_2456956_81004.csv'
p68
sS'PsiPer_20140122nfw.fits'
p69
S'PsiPer_2456680_58175.csv'
p70
sS'PsiPer_07jan2013w.fits'
p71
S'PsiPer_2456300_57999.csv'
p72
sS'Pleione_20141230nfw.fits'
p73
S'28Tau_2457022_52871.csv'
p74
sS'PsiPer_20141214nfw.fits'
p75
S'PsiPer_2457006_55378.csv'
p76
sS'BetCMi_20150421nfw.fits'
p77
S'BetCmi_2457134_6063.csv'
p78
sS'ChiOph_20150522nfw.fits'
p79
S'ChiOph_2457165_64328.csv'
p80
sS'PsiPer_20141118nfw.fits'
p81
S'PsiPer_2456980_63069.csv'
p82
sS'Pleione_20141107nfw.fits'
p83
S'28Tau_2456969_65829.csv'
p84
sS'PiAqr_20150822nfw.fits'
p85
S'Pi.Aqr_2457257_72597.csv'
p86
sS'PsiPer_20141019nfw.fits'
p87
S'PsiPer_2456950_70208.csv'
p88
sS'PsiPer_20151113nfw.fits'
p89
S'PsiPer_2457340_6519.csv'
p90
sS'10Cas_20151112nfw.fits'
p91
S'10Cas_2457339_66965.csv'
p92
sS'PiAqr_20130825nfw.fits'
p93
S'Pi.Aqr_2456530_70779.csv'
p94
sS'EWLac_20131124nfw.fits'
p95
S'HD217050_2456621_57619.csv'
p96
sS'EWLac_20141121nfw.fits'
p97
S'HD217050_2456983_6203.csv'
p98
sS'PsiPer_20141016nfw.fits'
p99
S'PsiPer_2456947_70318.csv'
p100
sS'PiAqr_20151021nfw.fits'
p101
S'Pi.Aqr_2457317_54113.csv'
p102
sS'NuGem_20150323nfw.fits'
p103
S'V*NuGem_2457105_5553.csv'
p104
sS'BetCMi_20150523nfw.fits'
p105
S'BetCmi_2457166_55345.csv'
p106
sS'PiAqr_20141025nfw.fits'
p107
S'Piaqr_2456956_62694.csv'
p108
sS'PiAqr_20141026nfw.fits'
p109
S'Pi.Aqr_2456957_55881.csv'
p110
sS'PsiPer_20140313nfw.fits'
p111
S'PsiPer_2456730_50526.csv'
p112
sS'BetCMi_20140402nfw.fits'
p113
S'BetCmi_2456750_60158.csv'
p114
sS'BetCMi_20141120nfw.fits'
p115
S'BetCmi_2456982_73593.csv'
p116
sS'10Cas_20141102nfw.fits'
p117
S'10Cas_2456964_57614.csv'
p118
sS'PiAqr_15jul2013nfw.fits'
p119
S'Pi.Aqr_2456489_69991.csv'
p120
sS'48Lib_20150614nfw.fits'
p121
S'48Lib_2457188_64129.csv'
p122
sS'BetCMi_20141114nfw.fits'
p123
S'BetCmi_2456976_7285.csv'
p124
sS'PiAqr_20151018nfw.fits'
p125
S'Pi.Aqr_2457314_53049.csv'
p126
sS'EWLac_20141111nfw.fits'
p127
S'HD217050_2456973_54809.csv'
p128
sS'BetCMi_20150427nfw.fits'
p129
S'BetCmi_2457140_5359.csv'
p130
sS'DelSco_20150813nfw.fits'
p131
S'DelSco_2457248_53594.csv'
p132
sS'PsiPer_20141025nfw.fits'
p133
S'PsiPer_2456956_7967.csv'
p134
sS'BetCMi_20131227nfw.fits'
p135
S'BetCmi_2456654_70462.csv'
p136
sS'PiAqr_20141008nfw.fits'
p137
S'Pi.Aqr_2456939_63022.csv'
p138
sS'PsiPer_20150208nfw.fits'
p139
S'PsiPer_2457062_5901.csv'
p140
sS'KapDra_20140511nfw.fits'
p141
S'KapDra_2456789_62268.csv'
p142
sS'PsiPer_20131004_shortw.fits'
p143
S'PsiPer_2456570_69621.csv'
p144
sS'EWLac_20150908nfw.fits'
p145
S'HD217050_2457274_54388.csv'
p146
sS'PsiPer_20140114sh_nfw.fits'
p147
S'PsiPer_2456672_50733.csv'
p148
sS'PsiPer_20141114nfw.fits'
p149
S'PsiPer_2456976_61258.csv'
p150
sS'ChiOph_20150614sh_nfw.fits'
p151
S'ChiOph_2457188_67943.csv'
p152
sS'PsiPer_20131108nfw.fits'
p153
S'PsiPer_2456605_70622.csv'
p154
sS'PsiPer_20150118nfw.fits'
p155
S'PsiPer_2457041_53137.csv'
p156
sS'BetCMi_20140119nfw.fits'
p157
S'BetCmi_2456677_71797.csv'
p158
sS'NuGem_20151113nfw.fits'
p159
S'V*NuGem_2457340_7393.csv'
p160
sS'PiAqr_20131215nfw.fits'
p161
S'Pi.Aqr_2456642_48949.csv'
p162
sS'66Oph_20130905nfw.fits'
p163
S'66Oph_2456541_55495.csv'
p164
sS'Pleione_20141025nfw.fits'
p165
S'28Tau_2456956_7502.csv'
p166
sS'BetCMi_20150513nfw.fits'
p167
S'BetCmi_2457156_52664.csv'
p168
sS'DelSco_20150802nfw.fits'
p169
S'DelSco_2457237_55423.csv'
p170
sS'BetCMi_20140416nfw.fits'
p171
S'BetCmi_2456764_55719.csv'
p172
sS'Pleione_20151019nfw.fits'
p173
S'28Tau_2457315_63269.csv'
p174
sS'BetCMi_20150109nfw.fits'
p175
S'BetCmi_2457032_63887.csv'
p176
sS'DelSco_20150522nfw.fits'
p177
S'DelSco_2457165_62597.csv'
p178
sS'BetCMi_20140410nfw.fits'
p179
S'BetCmi_2456758_60637.csv'
p180
sS'BetCMi_20140325nfw.fits'
p181
S'BetCmi_2456742_5947.csv'
p182
sS'PsiPer_20150306nfw.fits'
p183
S'PsiPer_2457088_51742.csv'
p184
sS'EWLac_20151020nfw.fits'
p185
S'HD217050_2457316_6206.csv'
p186
sS'Pleione_20150208nfw.fits'
p187
S'28Tau_2457062_6059.csv'
p188
sS'PiAqr_20131004nfw.fits'
p189
S'Pi.Aqr_2456570_62072.csv'
p190
sS'HD698_20150118nfw.fits'
p191
S'HD698_2457040_50046.csv'
p192
sS'66Oph_20150914nfw.fits'
p193
S'66Oph_2457280_52174.csv'
p194
sS'PhiAnd_20151110nfw.fits'
p195
S'PhiAnd_2457337_70589.csv'
p196
sS'PsiPer_20150205nfw.fits'
p197
S'PsaiPer_2457059_5723.csv'
p198
sS'BetCMi_20150315nfw.fits'
p199
S'BetCmi_2457097_61192.csv'
p200
sS'EWLac_20141025nfw.fits'
p201
S'HD217050_2456956_64794.csv'
p202
sS'ChiOph_20150813nfw.fits'
p203
S'ChiOph_2457248_54645.csv'
p204
sS'BetCMi_20150504nfw.fits'
p205
S'BetCmi_2457147_54413.csv'
p206
sS'66Oph_20150814nfw.fits'
p207
S'66Oph_2457249_55885.csv'
p208
sS'BetCMi_20131226nfw.fits'
p209
S'BetCmi_2456653_73792.csv'
p210
sS'PsiPer_20150918nfw.fits'
p211
S'PsiPer_2457284_70454.csv'
p212
sS'PiAqr_20141226nfw.fits'
p213
S'Pi.Aqr_2457018_4545.csv'
p214
sS'BetCMi_20140208nfw.fits'
p215
S'BetCmi_2456697_56045.csv'
p216
sS'PiAqr_20151015nfw.fits'
p217
S'Pi.Aqr_2457311_57474.csv'
p218
sS'PsiPer_20140227lo_nfw.fits'
p219
S'PsiPer_2456715_50239.csv'
p220
sS'BetCMi_20141026nfw.fits'
p221
S'BetCmi_2456957_76915.csv'
p222
sS'NuGem_20150105nfw.fits'
p223
S'V*NuGem_2457028_59812.csv'
p224
sS'PsiPer_20141026nfw.fits'
p225
S'PsiPer_2456957_69465.csv'
p226
sS'BetCMi_25apr2013w.fits'
p227
S'BetCmi_2456408_54589.csv'
p228
sS'EWLac_20151219nfw.fits'
p229
S'HD217050_2457376_55576.csv'
p230
sS'PsiPer_20151111nfw.fits'
p231
S'PsiPer_2457338_61588.csv'
p232
sS'EWLac_20141027nfw.fits'
p233
S'HD217050_2456958_65066.csv'
p234
sS'PsiPer_20140124nfw.fits'
p235
S'PsiPer_2456682_56354.csv'
p236
sS'BetCMi_20150121nfw.fits'
p237
S'BetCmi_2457044_6133.csv'
p238
sS'PsiPer_20141226nfw.fits'
p239
S'PsiPer_2457018_54719.csv'
p240
sS'BetCMi_20150119nfw.fits'
p241
S'BetCmi_2457042_72562.csv'
p242
sS'BetCMi_20140322nfw.fits'
p243
S'BetCmi_2456739_6033.csv'
p244
sS'GamCas_20151116nfw.fits'
p245
S'GamCas_2457343_52615.csv'
p246
sS'PiAqr_20141022nfw.fits'
p247
S'Pi.Aqr_2456953_52163.csv'
p248
sS'ZetTau_20131227nfw.fits'
p249
S'ZetTau_2456654_68125.csv'
p250
sS'PiAqr_20130907nfw.fits'
p251
S'Pi.Aqr_2456543_63276.csv'
p252
sS'BetCMi_20150423nfw.fits'
p253
S'BetCmi_2457136_53523.csv'
p254
sS'PsiPer_20141102nfw.fits'
p255
S'PsiPer_2456964_63555.csv'
p256
sS'PsiPer_20151116nfw.fits'
p257
S'PsiPer_2457343_58582.csv'
p258
sS'ChiOph_20130725lnfw.fits'
p259
S'ChiOph_2456499_5846.csv'
p260
sS'PsiPer_20141130nfw.fits'
p261
S'PsiPer_2456992_62237.csv'
p262
sS'66Oph_20150813nfw.fits'
p263
S'66Oph_2457248_57528.csv'
p264
sS'4Her_20140601nfw.fits'
p265
S'4Her_2456810_63298.csv'
p266
sS'EWLac_20151110nfw.fits'
p267
S'HD217050_2457337_61893.csv'
p268
sS'PsiPer_20141107nfw.fits'
p269
S'PsiPer_2456969_63257.csv'
p270
sS'BetCMi_20131210nfw.fits'
p271
S'BetCmi_2456637_72546.csv'
p272
sS'PsiPer_20151112nfw.fits'
p273
S'PsiPer_2457339_7182.csv'
p274
sS'PiAqr_20150918nfw.fits'
p275
S'Pi.Aqr_2457284_65687.csv'
p276
sS'PsiPer_20140222nfw.fits'
p277
S'PsiPer_2456711_50622.csv'
p278
sS'10Cas_20141024nfw.fits'
p279
S'10Cas_2456955_6449.csv'
p280
sS'EWLac_20151017nfw.fits'
p281
S'HD217050_2457313_59413.csv'
p282
sS'DelSco_20150822nfw.fits'
p283
S'DelSco_2457257_52805.csv'
p284
sS'PsiPer_20141120nfw.fits'
p285
S'PsiPer_2456982_60224.csv'
p286
sS'DelSco_20130725nfw.fits'
p287
S'DelSco_2456499_5633.csv'
p288
sS'ChiOph_20150523sh_nfw.fits'
p289
S'ChiOph_2457166_70589.csv'
p290
sS'PiAqr_20141019nfw.fits'
p291
S'PiQqr_2456950_63248.csv'
p292
sS'Pleione_20140124nfw.fits'
p293
S'28Tau_2456682_57675.csv'
p294
sS'GamCas_20150110nfw.fits'
p295
S'GamCas_2457033_51678.csv'
p296
sS'10Cas_20141026nfw.fits'
p297
S'10Cas_2456957_67547.csv'
p298
sS'PsiPer_20141005nfw.fits'
p299
S'PsiPer_2456936_66639.csv'
p300
sS'PsiPer_20150116nfw.fits'
p301
S'PsiPer_2457039_6454.csv'
p302
sS'Pleione_20140103nfw.fits'
p303
S'28Tau_2456661_53469.csv'
p304
sS'EWLac_20151019nfw.fits'
p305
S'HD217050_2457315_5251.csv'
p306
sS'BetCMi_20150206nfw.fits'
p307
S'BetCmi_2457060_66744.csv'
p308
sS'PiAqr_20141111nfw.fits'
p309
S'Pi.Aqr_2456972_50403.csv'
p310
sS'10Cas_20151123nfw.fits'
p311
S'10Cas_2457350_54587.csv'
p312
sS'PiAqr_20141027nfw.fits'
p313
S'Pi.Aqr_2456958_54484.csv'
p314
sS'BetCMi_20140409nfw.fits'
p315
S'BetCmi_2456757_59119.csv'
p316
sS'DelSco_20150628nfw.fits'
p317
S'DelSco_2457202_67016.csv'
p318
sS'PsiPer_20140116nfw.fits'
p319
S'PsiPer_2456674_49469.csv'
p320
sS'ZetTau_20141102nfw.fits'
p321
S'ZetTau_2456964_7131.csv'
p322
sS'GamCas_20151018nfw.fits'
p323
S'GamCas_2457314_6523.csv'
p324
sS'EWLac_20150808nfw.fits'
p325
S'HD217050_2457243_6397.csv'
p326
sS'HD698_20141226nfw.fits'
p327
S'HD698_2457018_50216.csv'
p328
sS'BetCMi_20131212nfw.fits'
p329
S'BetCmi_2456639_80127.csv'
p330
sS'BetCMi_20140224nfw.fits'
p331
S'BetCmi_2456713_579.csv'
p332
sS'BetCMi_20140401nfw.fits'
p333
S'BetCmi_2456749_59543.csv'
p334
sS'GamCas_07jan2013w.fits'
p335
S'GamCas_2456300_51693.csv'
p336
sS'BetCMi_20150522nfw.fits'
p337
S'BetCmi_2457165_53021.csv'
p338
sS'PsiPer_20140120nfw.fits'
p339
S'PsiPer_2456678_5937.csv'
p340
sS'ChiOph_20150802nfw.fits'
p341
S'ChiOph_2457237_5666.csv'
p342
sS'48Per_20131201sh_nfw.fits'
p343
S'CPer_2456628_62871.csv'
p344
sS'BetCMi_20141110nfw.fits'
p345
S'BetCmi_2456972_74691.csv'
p346
sS'EWLac_20151016nfw.fits'
p347
S'HD217050_2457312_60433.csv'
p348
sS'BetCMi_20140131nfw.fits'
p349
S'BetCmi_2456689_60659.csv'
p350
sS'EWLac_20141005nfw.fits'
p351
S'HD217050_2456936_56764.csv'
p352
sS'EWLac_19jan2013w.fits'
p353
S'HD217050_2456312_52039.csv'
p354
sS'BetCMi_20140112nfw.fits'
p355
S'BetCmi_2456670_73121.csv'
p356
sS'EWLac_20141115nfw.fits'
p357
S'HD217050_2456977_53384.csv'
p358
sS'ChiOph_20140531nfw.fits'
p359
S'ChiOph_2456809_71278.csv'
p360
sS'BetCMi_20150205nfw.fits'
p361
S'BetCmi_2457059_67031.csv'
p362
sS'BetCMi_20150503nfw.fits'
p363
S'BetCmi_2457146_54339.csv'
p364
sS'BetCMi_20141212nfw.fits'
p365
S'BetCmi_2457004_7291.csv'
p366
sS'BetCMi_20141214nfw.fits'
p367
S'BetCmi_2457006_64393.csv'
p368
sS'HD698_20141214nfw.fits'
p369
S'HD698_2457006_5138.csv'
p370
sS'BetCMi_20150404nfw.fits'
p371
S'BetCmi_2457117_57339.csv'
p372
sS'GamCas_20151122nfw.fits'
p373
S'GamCas_2457349_49461.csv'
p374
sS'BetCMi_20140122nfw.fits'
p375
S'BetCmi_2456680_59085.csv'
p376
sS'EWLac_20151123nfw.fits'
p377
S'HD217050_2457350_51328.csv'
p378
sS'BetCMi_20150208nfw.fits'
p379
S'BetCmi_2457062_66879.csv'
p380
sS'10Cas_20141120nfw.fits'
p381
S'10Cas_2456982_57531.csv'
p382
sS'PsiPer_20141211nfw.fits'
p383
S'PsiPer_2457003_56469.csv'
p384
sS'EWLac_20150812nfw.fits'
p385
S'HD217050_2457247_70846.csv'
p386
sS'BetCMi_19jan2013w.fits'
p387
S'BetCmi_2456312_59922.csv'
p388
sS'PsiPer_20141018nfw.fits'
p389
S'PsiPer_2456949_6894.csv'
p390
sS'DelSco_20150504sh_nfw.fits'
p391
S'DelSco_2457147_69455.csv'
p392
sS'BetCMi_20140320nfw.fits'
p393
S'BetCmi_2456737_59932.csv'
p394
sS'BetCMi_20140223nfw.fits'
p395
S'BetCmi_2456712_71308.csv'
p396
sS'DelSco_20150821nfw.fits'
p397
S'DelSco_2457256_53468.csv'
p398
sS'66Oph_20130826nfw.fits'
p399
S'66Oph_2456531_58631.csv'
p400
sS'DelSco_20150812sh_nfw.fits'
p401
S'DelSco_2457247_54106.csv'
p402
sS'ZetTau_20140103sh_nfw.fits'
p403
S'ZetTau_2456661_65606.csv'
p404
sS'EWLac_20141009nfw.fits'
p405
S'HD217050_2456940_59401.csv'
p406
sS'Pleione_20151111nfw.fits'
p407
S'28Tau_2457338_62888.csv'
p408
sS'BetCMi_20141121nfw.fits'
p409
S'BetCmi_2456983_74351.csv'
p410
sS'PsiPer_20141110nfw.fits'
p411
S'PsiPer_2456972_66459.csv'
p412
sS'66Oph_20150825nfw.fits'
p413
S'66Oph_2457260_54987.csv'
p414
sS'66Oph_20130723nfw.fits'
p415
S'66Oph_2456497_62319.csv'
p416
sS'BetCMi_20140313nfw.fits'
p417
S'BetCmi_2456730_54715.csv'
p418
sS'NuGem_20150404nfw.fits'
p419
S'V*NuGem_2457117_52829.csv'
p420
sS'Pleione_20151122nfw.fits'
p421
S'28Tau_2457349_59168.csv'
p422
sS'BetCMi_20141024nfw.fits'
p423
S'BetCmi_2456955_7766.csv'
p424
sS'BetCMi_20141109nfw.fits'
p425
S'BetCmi_2456971_77113.csv'
p426
sS'PsiPer_20151209nfw.fits'
p427
S'PsiPer_2457366_63758.csv'
p428
sS'PsiPer_20141115nfw.fits'
p429
S'PsiPer_2456977_60996.csv'
p430
sS'EWLac_20141107nfw.fits'
p431
S'HD217050_2456969_56213.csv'
p432
sS'ZetTau_20140114nfw.fits'
p433
S'ZetTau_2456672_6077.csv'
p434
sS'BetCMi_20141111nfw.fits'
p435
S'BetCmi_2456973_77825.csv'
p436
sS'DelSco_20140519nf2low.fits'
p437
S'DelSco_2456797_72596.csv'
p438
sS'EWLac_20141130nfw.fits'
p439
S'HD217050_2456992_50134.csv'
p440
sS'48Lib_20150523nfw.fits'
p441
S'48Lib_2457166_67155.csv'
p442
sS'DelSco_20150716sh_nfw.fits'
p443
S'DelSco_2457220_58166.csv'
p444
sS'PsiPer_20151019nfw.fits'
p445
S'PsiPer_2457315_61696.csv'
p446
sS'EWLac_20131212nfw.fits'
p447
S'HD217050_2456639_55826.csv'
p448
sS'EWLac_20151215nfw.fits'
p449
S'HD217050_2457372_52902.csv'
p450
sS'NuGem_20141212nfw.fits'
p451
S'V*NuGem_2457004_69742.csv'
p452
sS'NuGem_20141109nfw.fits'
p453
S'V*NuGem_2456971_76414.csv'
p454
sS'BetCMi_20131201nfw.fits'
p455
S'BetCmi_2456628_75549.csv'
p456
sS'PiAqr_20141214nfw.fits'
p457
S'Pi.Aqr_2457006_45452.csv'
p458
sS'BetCMi_20150105nfw.fits'
p459
S'BetCmi_2457028_63286.csv'
p460
sS'NuGem_20140224nfw.fits'
p461
S'V*NuGem_2456713_54805.csv'
p462
sS'EWLac_20141211nfw.fits'
p463
S'HD217050_2457003_4704.csv'
p464
sS'EWLac_20141210nfw.fits'
p465
S'HD217050_2457002_52441.csv'
p466
sS'NuGem_20141107nfw.fits'
p467
S'V*NuGem_2456969_72927.csv'
p468
sS'PsiPer_20151114nfw.fits'
p469
S'PsiPer_2457341_68435.csv'
p470
sS'BetCMi_20150207nfw.fits'
p471
S'BetCmi_2457061_68064.csv'
p472
sS'BetCMi_20140522nfw.fits'
p473
S'BetCmi_2456800_53181.csv'
p474
sS'EWLac_20141110nfw.fits'
p475
S'HD217050_2456972_58215.csv'
p476
sS'PsiPer_20141109nfw.fits'
p477
S'PsiPer_2456971_64651.csv'
p478
sS'48Lib_20150628nfw.fits'
p479
S'48Lib_2457202_6336.csv'
p480
sS'PiAqr_20131110nfw.fits'
p481
S'Pi.Aqr_2456607_52623.csv'
p482
sS'PsiPer_20150109nfw.fits'
p483
S'PsiPer_2457032_53605.csv'
p484
sS'PsiPer_20140103nfw.fits'
p485
S'PsiPer_2456661_64135.csv'
p486
sS'ChiOph_20150814sh_nfw.fits'
p487
S'ChiOph_2457249_54494.csv'
p488
sS'10Cas_20141211nfw.fits'
p489
S'10Cas_2457003_5275.csv'
p490
sS'EWLac_20150917nfw.fits'
p491
S'HD217050_2457283_55501.csv'
p492
sS'PsiPer_20141121nfw.fits'
p493
S'PsiPer_2456983_64529.csv'
p494
sS'EWLac_20141214nfw.fits'
p495
S'HD217050_2457006_49331.csv'
p496
sS'BetCMi_20140120nfw.fits'
p497
S'BetCmi_2456678_65754.csv'
p498
sS'PiAqr_20141016nfw.fits'
p499
S'Pi.Aqr_2456947_5929.csv'
p500
sS'DelSco_20150814sh_nfw.fits'
p501
S'DelSco_2457249_5346.csv'
p502
sS'EWLac_20151209nfw.fits'
p503
S'HD217050_2457366_51588.csv'
p504
sS'BetCMi_20140508nfw.fits'
p505
S'BetCmi_2456786_54335.csv'
p506
sS'ChiOph_20140601nfw.fits'
p507
S'ChiOph_2456810_68917.csv'
p508
sS'EWLac_20150913nfw.fits'
p509
S'HD217050_2457279_60175.csv'
p510
sS'ChiOph_20150821sh_nfw.fits'
p511
S'ChiOph_2457256_54799.csv'
p512
sS'66Oph_20150802nfw.fits'
p513
S'66Oph_2457237_60494.csv'
p514
sS'EWLac_20151114nfw.fits'
p515
S'HD217050_2457341_61976.csv'
p516
sS'48Lib_20150716nfw.fits'
p517
S'48Lib_2457220_61469.csv'
p518
sS'PsiPer_20150307nfw.fits'
p519
S'PsiPer_2457089_51218.csv'
p520
sS'PsiPer_20151110nfw.fits'
p521
S'PsiPer_2457337_72319.csv'
p522
sS'EWLac_20131129nfw.fits'
p523
S'HD217050_2456626_52576.csv'
p524
sS'EWLac_20131215nfw.fits'
p525
S'HD217050_2456642_51572.csv'
p526
sS'BetCMi_20131211nfw.fits'
p527
S'BetCmi_2456638_76163.csv'
p528
sS'PsiPer_20151208nfw.fits'
p529
S'PsiPer_2457365_56895.csv'
p530
sS'PsiPer_20141027nfw.fits'
p531
S'PsiPer_2456958_66761.csv'
p532
sS'PsiPer_20151015nfw.fits'
p533
S'PsiPer_2457311_64205.csv'
p534
sS'EWLac_20141022nfw.fits'
p535
S'HD217050_2456953_55009.csv'
p536
sS'Pleione_20150109nfw.fits'
p537
S'28Tau_2457032_5568.csv'
p538
sS'PsiPer_20151017nfw.fits'
p539
S'PsiPer_2457313_64248.csv'
p540
sS'BetCMi_20141230nfw.fits'
p541
S'BetCmi_2457022_59314.csv'
p542
sS'EWLac_20151022nfw.fits'
p543
S'HD217050_2457318_55244.csv'
p544
sS'EWLac_20150813nfw.fits'
p545
S'HD217050_2457248_69616.csv'
p546
sS'PsiPer_20141210nfw.fits'
p547
S'PsiPer_2457002_64268.csv'
p548
sS'PsiPer_20150110nfw.fits'
p549
S'PsiPer_2457033_65344.csv'
p550
sS'10Cas_20151111nfw.fits'
p551
S'10Cas_2457338_56762.csv'
p552
sS'ChiOph_20150808sh_nfw.fits'
p553
S'ChiOph_2457243_55714.csv'
p554
sS'PiAqr_20141103nfw.fits'
p555
S'Pi.Aqr_2456965_62586.csv'
p556
sS'NuGem_20150423nfw.fits'
p557
S'V*NuGem_2457136_54713.csv'
p558
sS'BetCMi_20140417nfw.fits'
p559
S'BetCmi_2456765_54945.csv'
p560
sS'Pleione_20140224nfw.fits'
p561
S'28Tau_2456712_50439.csv'
p562
sS'EWLac_20141030nfw.fits'
p563
S'HD217050_2456961_60406.csv'
p564
sS'PiAqr_20131124nfw.fits'
p565
S'Pi.Aqr_2456621_56102.csv'
p566
sS'EWLac_20141016nfw.fits'
p567
S'HD217050_2456947_61547.csv'
p568
sS'EWLac_20151122nfw.fits'
p569
S'HD217050_2457349_51041.csv'
p570
sS'48Per_20151020nfw.fits'
p571
S'CPer_2457316_67186.csv'
p572
sS'EWLac_20141103nfw.fits'
p573
S'HD217050_2456965_65987.csv'
p574
sS'PsiPer_20141030nfw.fits'
p575
S'PsiPer_2456961_67676.csv'
p576
sS'V777Cas_20131108nfw.fits'
p577
S'HD11606_2456605_6569.csv'
p578
sS'66Oph_20150917nfw.fits'
p579
S'66Oph_2457283_51487.csv'
p580
sS'PsiPer_20151123nfw.fits'
p581
S'PsiPer_2457350_59543.csv'
p582
sS'PiAqr_20141109nfw.fits'
p583
S'Pi.Aqr_2456971_54995.csv'
p584
sS'31Peg_20151019nfw.fits'
p585
S'31Peg_2457315_55802.csv'
p586
sS'GamCas_20131004_shortw.fits'
p587
S'GamCas_2456570_68933.csv'
p588
sS'BetCMi_20141130nfw.fits'
p589
S'BetCmi_2456992_68457.csv'
p590
sS'FFCam_25apr2013nfw.fits'
p591
S'FFCam_2456408_5944.csv'
p592
sS'10Cas_20141114nfw.fits'
p593
S'10Cas_2456976_54694.csv'
p594
sS'GamCas_20150821sh_nfw.fits'
p595
S'GamCas_2457256_69254.csv'
p596
sS'EWLac_20150914nfw.fits'
p597
S'HD217050_2457280_62614.csv'
p598
sS'PsiPer_20151023nfw.fits'
p599
S'PsiPer_2457319_58296.csv'
p600
sS'PiAqr_20131108nfw.fits'
p601
S'Pi.Aqr_2456605_58474.csv'
p602
sS'GamCas_20131103nfw.fits'
p603
S'GamCas_2456600_68432.csv'
p604
sS'PsiPer_20151122nfw.fits'
p605
S'PsiPer_2457349_572.csv'
p606
sS'EWLac_20141026nfw.fits'
p607
S'HD217050_2456957_65624.csv'
p608
sS'BetCMi_20150505nfw.fits'
p609
S'BetCmi_2457148_54337.csv'
p610
sS'BetCMi_20140511nfw.fits'
p611
S'BetCmi_2456789_52643.csv'
p612
sS'GamCas_20151113nfw.fits'
p613
S'GamCas_2457340_58402.csv'
p614
sS'EWLac_20151112nfw.fits'
p615
S'HD217050_2457339_62282.csv'
p616
sS'NuGem_20150427nfw.fits'
p617
S'V*NuGem_2457140_58212.csv'
p618
sS'10Cas_20151018nfw.fits'
p619
S'10Cas_2457314_60302.csv'
p620
sS'KapDra_25apr2013w.fits'
p621
S'KapDra_2456408_56716.csv'
p622
sS'KapDra_20150504nfw.fits'
p623
S'KapDra_2457147_57949.csv'
p624
sS'PiAqr_20130922nfw.fits'
p625
S'Pi.Aqr_2456558_57336.csv'
p626
sS'BetCMi_20131128nfw.fits'
p627
S'BetCmi_2456625_83516.csv'
p628
sS'ZetTau_07jan2013w.fits'
p629
S'ZetTau_2456300_60244.csv'
p630
sS'EWLac_20151021nfw.fits'
p631
S'HD217050_2457317_5978.csv'
p632
sS'Pleione_20141102nfw.fits'
p633
S'28Tau_2456964_69867.csv'
p634
sS'EWLac_20150918nfw.fits'
p635
S'_2457284_61332.csv'
p636
sS'PiAqr_20150913nfw.fits'
p637
S'Pi.Aqr_2457279_62268.csv'
p638
sS'DelSco_20140531nfw.fits'
p639
S'DelSco_2456809_70232.csv'
p640
sS'EWLac_20141226nfw.fits'
p641
S'HD217050_2457018_47174.csv'
p642
sS'EWLac_20151116nfw.fits'
p643
S'HD217050_2457343_53058.csv'
p644
sS'PsiPer_20141024nfw.fits'
p645
S'PsiPer_2456955_66678.csv'
p646
sS'PsiPer_20151016sh_nfw.fits'
p647
S'PsiPer_2457312_66833.csv'
p648
sS'PsiPer_20131129nfw.fits'
p649
S'PsiPer_2456626_58626.csv'
p650
sS'BetCMi_20150307nfw.fits'
p651
S'BetCmi_2457089_59654.csv'
p652
sS'OmiHer_20150915nfw.fits'
p653
S'OmiHer_2457281_51239.csv'
p654
sS'PsiPer_20151215nfw.fits'
p655
S'PsiPer_2457372_66487.csv'
p656
sS'NuGem_20140124nfw.fits'
p657
S'V*NuGem_2456682_59667.csv'
p658
sS'BetCMi_20140124lo_nfw.fits'
p659
S'BetCmi_2456682_63178.csv'
p660
sS'PsiPer_20151020nfw.fits'
p661
S'PsiPer_2457316_66155.csv'
p662
s.